target datalayout = "e-m:e-p270:32:32-p271:32:32-p272:64:64-i64:64-i128:128-f80:128-n8:16:32:64-S128"
target triple = "x86_64-pc-linux-gnu"

%"struct.folly::AsyncUDPSocket::WriteOptions" = type { i32, i8, %"class.std::chrono::duration" }
%"class.std::chrono::duration" = type { i64 }
%struct.iovec = type { ptr, i64 }
%"struct.folly::IOBuf::FillIovResult" = type { i64, i64 }
%"class.folly::Range.150" = type { ptr, ptr }
%"class.std::unique_ptr.137" = type { %"struct.std::__uniq_ptr_data.138" }
%"struct.std::__uniq_ptr_data.138" = type { %"class.std::__uniq_ptr_impl.139" }
%"class.std::__uniq_ptr_impl.139" = type { %"class.std::tuple.140" }
%"class.std::tuple.140" = type { %"struct.std::_Tuple_impl.141" }
%"struct.std::_Tuple_impl.141" = type { %"struct.std::_Head_base.144" }
%"struct.std::_Head_base.144" = type { ptr }
%"class.folly::IOBuf" = type { i64, ptr, i64, ptr, ptr, ptr, ptr }

; Function Attrs: mustprogress nounwind uwtable
define linkonce_odr noundef nonnull align 8 dereferenceable(8) ptr @_ZNSt10_Head_baseILm0EPN5folly5IOBufELb0EE7_M_headERKS3_(ptr noundef nonnull align 8 dereferenceable(8) %0) #0 comdat align 2 {
  %2 = alloca ptr, align 8
  store ptr %0, ptr %2, align 8, !tbaa !353
  %3 = load ptr, ptr %2, align 8, !tbaa !353
  %4 = getelementptr inbounds nuw %"struct.std::_Head_base.144", ptr %3, i32 0, i32 0
  ret ptr %4
}

; Function Attrs: mustprogress nounwind uwtable
define linkonce_odr noundef nonnull align 8 dereferenceable(8) ptr @_ZNSt11_Tuple_implILm0EJPN5folly5IOBufESt14default_deleteIS1_EEE7_M_headERKS5_(ptr noundef nonnull align 8 dereferenceable(8) %0) #0 comdat align 2 {
  %2 = alloca ptr, align 8
  store ptr %0, ptr %2, align 8, !tbaa !351
  %3 = load ptr, ptr %2, align 8, !tbaa !351
  %4 = call noundef nonnull align 8 dereferenceable(8) ptr @_ZNSt10_Head_baseILm0EPN5folly5IOBufELb0EE7_M_headERKS3_(ptr noundef nonnull align 8 dereferenceable(8) %3) #25
  ret ptr %4
}

; Function Attrs: mustprogress nounwind uwtable
define linkonce_odr noundef nonnull align 8 dereferenceable(8) ptr @_ZSt12__get_helperILm0EPN5folly5IOBufEJSt14default_deleteIS1_EEERKT0_RKSt11_Tuple_implIXT_EJS5_DpT1_EE(ptr noundef nonnull align 8 dereferenceable(8) %0) #0 comdat {
  %2 = alloca ptr, align 8
  store ptr %0, ptr %2, align 8, !tbaa !351
  %3 = load ptr, ptr %2, align 8, !tbaa !351
  %4 = call noundef nonnull align 8 dereferenceable(8) ptr @_ZNSt11_Tuple_implILm0EJPN5folly5IOBufESt14default_deleteIS1_EEE7_M_headERKS5_(ptr noundef nonnull align 8 dereferenceable(8) %3) #25
  ret ptr %4
}

; Function Attrs: mustprogress nounwind uwtable
define linkonce_odr noundef nonnull align 8 dereferenceable(8) ptr @_ZSt3getILm0EJPN5folly5IOBufESt14default_deleteIS1_EEERKNSt13tuple_elementIXT_ESt5tupleIJDpT0_EEE4typeERKS9_(ptr noundef nonnull align 8 dereferenceable(8) %0) #0 comdat {
  %2 = alloca ptr, align 8
  store ptr %0, ptr %2, align 8, !tbaa !349
  %3 = load ptr, ptr %2, align 8, !tbaa !349
  %4 = call noundef nonnull align 8 dereferenceable(8) ptr @_ZSt12__get_helperILm0EPN5folly5IOBufEJSt14default_deleteIS1_EEERKT0_RKSt11_Tuple_implIXT_EJS5_DpT1_EE(ptr noundef nonnull align 8 dereferenceable(8) %3) #25
  ret ptr %4
}

; Function Attrs: mustprogress nounwind uwtable
define linkonce_odr noundef ptr @_ZNKSt15__uniq_ptr_implIN5folly5IOBufESt14default_deleteIS1_EE6_M_ptrEv(ptr noundef nonnull align 8 dereferenceable(8) %0) #0 comdat align 2 {
  %2 = alloca ptr, align 8
  store ptr %0, ptr %2, align 8, !tbaa !345
  %3 = load ptr, ptr %2, align 8
  %4 = getelementptr inbounds nuw %"class.std::__uniq_ptr_impl.139", ptr %3, i32 0, i32 0
  %5 = call noundef nonnull align 8 dereferenceable(8) ptr @_ZSt3getILm0EJPN5folly5IOBufESt14default_deleteIS1_EEERKNSt13tuple_elementIXT_ESt5tupleIJDpT0_EEE4typeERKS9_(ptr noundef nonnull align 8 dereferenceable(8) %4) #25
  %6 = load ptr, ptr %5, align 8, !tbaa !343
  ret ptr %6
}

; Function Attrs: mustprogress nounwind uwtable
define linkonce_odr noundef ptr @_ZNKSt10unique_ptrIN5folly5IOBufESt14default_deleteIS1_EE3getEv(ptr noundef nonnull align 8 dereferenceable(8) %0) #0 comdat align 2 {
  %2 = alloca ptr, align 8
  store ptr %0, ptr %2, align 8, !tbaa !94
  %3 = load ptr, ptr %2, align 8
  %4 = getelementptr inbounds nuw %"class.std::unique_ptr.137", ptr %3, i32 0, i32 0
  %5 = call noundef ptr @_ZNKSt15__uniq_ptr_implIN5folly5IOBufESt14default_deleteIS1_EE6_M_ptrEv(ptr noundef nonnull align 8 dereferenceable(8) %4) #25
  ret ptr %5
}

; Function Attrs: mustprogress nounwind uwtable
define linkonce_odr noundef i64 @_ZNK5folly5IOBuf6lengthEv(ptr noundef nonnull align 8 dereferenceable(56) %0) #0 comdat align 2 {
  %2 = alloca ptr, align 8
  store ptr %0, ptr %2, align 8, !tbaa !343
  %3 = load ptr, ptr %2, align 8
  %4 = getelementptr inbounds nuw %"class.folly::IOBuf", ptr %3, i32 0, i32 0
  %5 = load i64, ptr %4, align 8, !tbaa !462
  ret i64 %5
}

; Function Attrs: mustprogress nounwind uwtable
define linkonce_odr noundef ptr @_ZNK5folly5IOBuf4dataEv(ptr noundef nonnull align 8 dereferenceable(56) %0) #0 comdat align 2 {
  %2 = alloca ptr, align 8
  store ptr %0, ptr %2, align 8, !tbaa !343
  %3 = load ptr, ptr %2, align 8
  %4 = getelementptr inbounds nuw %"class.folly::IOBuf", ptr %3, i32 0, i32 1
  %5 = load ptr, ptr %4, align 8, !tbaa !459
  ret ptr %5
}

; Function Attrs: mustprogress nounwind uwtable
define linkonce_odr noundef ptr @_ZNKSt10unique_ptrIN5folly5IOBufESt14default_deleteIS1_EEptEv(ptr noundef nonnull align 8 dereferenceable(8) %0) #0 comdat align 2 {
  %2 = alloca ptr, align 8
  store ptr %0, ptr %2, align 8, !tbaa !94
  %3 = load ptr, ptr %2, align 8
  %4 = call noundef ptr @_ZNKSt10unique_ptrIN5folly5IOBufESt14default_deleteIS1_EE3getEv(ptr noundef nonnull align 8 dereferenceable(8) %3) #25
  ret ptr %4
}

; Function Attrs: mustprogress uwtable
define noundef i64 @_ZN5folly14AsyncUDPSocket8writeGSOERKNS_13SocketAddressERKSt10unique_ptrINS_5IOBufESt14default_deleteIS5_EENS0_12WriteOptionsE(ptr noundef nonnull align 16 dereferenceable(768) %0, ptr noundef nonnull align 8 dereferenceable(27) %1, ptr noundef nonnull align 8 dereferenceable(8) %2, i64 %3, i64 %4) unnamed_addr #1 align 2 {
  %6 = alloca %"struct.folly::AsyncUDPSocket::WriteOptions", align 8
  %7 = alloca ptr, align 8
  %8 = alloca ptr, align 8
  %9 = alloca ptr, align 8
  %10 = alloca [16 x %struct.iovec], align 16
  %11 = alloca i64, align 8
  %12 = alloca %"struct.folly::IOBuf::FillIovResult", align 8
  %13 = alloca %"class.folly::Range.150", align 8
  %14 = alloca %"struct.folly::AsyncUDPSocket::WriteOptions", align 8
  %15 = getelementptr inbounds nuw { i64, i64 }, ptr %6, i32 0, i32 0
  store i64 %3, ptr %15, align 8
  %16 = getelementptr inbounds nuw { i64, i64 }, ptr %6, i32 0, i32 1
  store i64 %4, ptr %16, align 8
  store ptr %0, ptr %7, align 8, !tbaa !7
  store ptr %1, ptr %8, align 8, !tbaa !70
  store ptr %2, ptr %9, align 8, !tbaa !94
  %17 = load ptr, ptr %7, align 8
  call void @llvm.lifetime.start.p0(i64 256, ptr %10) #25
  call void @llvm.lifetime.start.p0(i64 8, ptr %11) #25
  call void @llvm.lifetime.start.p0(i64 16, ptr %12) #25
  %18 = load ptr, ptr %9, align 8, !tbaa !94
  %19 = call noundef ptr @_ZNKSt10unique_ptrIN5folly5IOBufESt14default_deleteIS1_EEptEv(ptr noundef nonnull align 8 dereferenceable(8) %18) #25
  %20 = getelementptr inbounds [16 x %struct.iovec], ptr %10, i64 0, i64 0
  %21 = call { i64, i64 } @_ZNK5folly5IOBuf7fillIovEP5iovecm(ptr noundef nonnull align 8 dereferenceable(56) %19, ptr noundef %20, i64 noundef 16)
  %22 = getelementptr inbounds nuw { i64, i64 }, ptr %12, i32 0, i32 0
  %23 = extractvalue { i64, i64 } %21, 0
  store i64 %23, ptr %22, align 8
  %24 = getelementptr inbounds nuw { i64, i64 }, ptr %12, i32 0, i32 1
  %25 = extractvalue { i64, i64 } %21, 1
  store i64 %25, ptr %24, align 8
  %26 = getelementptr inbounds nuw %"struct.folly::IOBuf::FillIovResult", ptr %12, i32 0, i32 0
  %27 = load i64, ptr %26, align 8, !tbaa !104
  call void @llvm.lifetime.end.p0(i64 16, ptr %12) #25
  store i64 %27, ptr %11, align 8, !tbaa !98
  %28 = load i64, ptr %11, align 8, !tbaa !98
  %29 = icmp eq i64 %28, 0
  %30 = zext i1 %29 to i64
  %31 = call i64 @llvm.expect.i64(i64 %30, i64 0)
  %32 = icmp ne i64 %31, 0
  br i1 %32, label %33, label %51

33:                                               ; preds = %5
  %34 = load ptr, ptr %9, align 8, !tbaa !94
  %35 = call noundef ptr @_ZNKSt10unique_ptrIN5folly5IOBufESt14default_deleteIS1_EEptEv(ptr noundef nonnull align 8 dereferenceable(8) %34) #25
  %36 = call { ptr, ptr } @_ZN5folly5IOBuf8coalesceEv(ptr noundef nonnull align 8 dereferenceable(56) %35)
  %37 = getelementptr inbounds nuw { ptr, ptr }, ptr %13, i32 0, i32 0
  %38 = extractvalue { ptr, ptr } %36, 0
  store ptr %38, ptr %37, align 8
  %39 = getelementptr inbounds nuw { ptr, ptr }, ptr %13, i32 0, i32 1
  %40 = extractvalue { ptr, ptr } %36, 1
  store ptr %40, ptr %39, align 8
  %41 = load ptr, ptr %9, align 8, !tbaa !94
  %42 = call noundef ptr @_ZNKSt10unique_ptrIN5folly5IOBufESt14default_deleteIS1_EEptEv(ptr noundef nonnull align 8 dereferenceable(8) %41) #25
  %43 = call noundef ptr @_ZNK5folly5IOBuf4dataEv(ptr noundef nonnull align 8 dereferenceable(56) %42) #25
  %44 = getelementptr inbounds [16 x %struct.iovec], ptr %10, i64 0, i64 0
  %45 = getelementptr inbounds nuw %struct.iovec, ptr %44, i32 0, i32 0
  store ptr %43, ptr %45, align 16, !tbaa !106
  %46 = load ptr, ptr %9, align 8, !tbaa !94
  %47 = call noundef ptr @_ZNKSt10unique_ptrIN5folly5IOBufESt14default_deleteIS1_EEptEv(ptr noundef nonnull align 8 dereferenceable(8) %46) #25
  %48 = call noundef i64 @_ZNK5folly5IOBuf6lengthEv(ptr noundef nonnull align 8 dereferenceable(56) %47) #25
  %49 = getelementptr inbounds [16 x %struct.iovec], ptr %10, i64 0, i64 0
  %50 = getelementptr inbounds nuw %struct.iovec, ptr %49, i32 0, i32 1
  store i64 %48, ptr %50, align 8, !tbaa !108
  store i64 1, ptr %11, align 8, !tbaa !98
  br label %51

51:                                               ; preds = %33, %5
  %52 = load ptr, ptr %8, align 8, !tbaa !70
  %53 = getelementptr inbounds [16 x %struct.iovec], ptr %10, i64 0, i64 0
  %54 = load i64, ptr %11, align 8, !tbaa !98
  call void @llvm.memcpy.p0.p0.i64(ptr align 8 %14, ptr align 8 %6, i64 16, i1 false), !tbaa.struct !109
  %55 = getelementptr inbounds nuw { i64, i64 }, ptr %14, i32 0, i32 0
  %56 = load i64, ptr %55, align 8
  %57 = getelementptr inbounds nuw { i64, i64 }, ptr %14, i32 0, i32 1
  %58 = load i64, ptr %57, align 8
  %59 = load ptr, ptr %17, align 16, !tbaa !96
  %60 = getelementptr inbounds ptr, ptr %59, i64 19
  %61 = load ptr, ptr %60, align 8
  %62 = call noundef i64 %61(ptr noundef nonnull align 16 dereferenceable(768) %17, ptr noundef nonnull align 8 dereferenceable(27) %52, ptr noundef %53, i64 noundef %54, i64 %56, i64 %58)
  call void @llvm.lifetime.end.p0(i64 8, ptr %11) #25
  call void @llvm.lifetime.end.p0(i64 256, ptr %10) #25
  ret i64 %62
}