; Function Attrs: mustprogress uwtable
define noundef i64 @_ZN5folly14AsyncUDPSocket8writeGSOERKNS_13SocketAddressERKSt10unique_ptrINS_5IOBufESt14default_deleteIS5_EENS0_12WriteOptionsE(ptr noundef nonnull align 16 dereferenceable(768) %0, ptr noundef nonnull align 8 dereferenceable(27) %1, ptr noundef nonnull readonly align 8 captures(none) dereferenceable(8) %2, i64 %3, i64 %4) unnamed_addr #1 align 2 {
  %6 = alloca [16 x %struct.iovec], align 16
  call void @llvm.lifetime.start.p0(i64 256, ptr nonnull %6) #36
  %7 = load ptr, ptr %2, align 8, !tbaa !126
  %8 = call { i64, i64 } @_ZNK5folly5IOBuf7fillIovEP5iovecm(ptr noundef nonnull align 8 dereferenceable(56) %7, ptr noundef nonnull %6, i64 noundef 16)
  %9 = extractvalue { i64, i64 } %8, 0
  %10 = icmp eq i64 %9, 0
  br i1 %10, label %11, label %19, !prof !12

11:                                               ; preds = %5
  %12 = load ptr, ptr %2, align 8, !tbaa !126
  %13 = call { ptr, ptr } @_ZN5folly5IOBuf8coalesceEv(ptr noundef nonnull align 8 dereferenceable(56) %12)
  %14 = load ptr, ptr %2, align 8, !tbaa !126
  %15 = getelementptr inbounds nuw i8, ptr %14, i64 8
  %16 = load ptr, ptr %15, align 8, !tbaa !128
  store ptr %16, ptr %6, align 16, !tbaa !131
  %17 = load i64, ptr %14, align 8, !tbaa !133
  %18 = getelementptr inbounds nuw i8, ptr %6, i64 8
  store i64 %17, ptr %18, align 8, !tbaa !134
  br label %19

19:                                               ; preds = %11, %5
  %.0 = phi i64 [ 1, %11 ], [ %9, %5 ]
  %20 = load ptr, ptr %0, align 16, !tbaa !124
  %21 = getelementptr inbounds nuw i8, ptr %20, i64 152
  %22 = load ptr, ptr %21, align 8
  %23 = call noundef i64 %22(ptr noundef nonnull align 16 dereferenceable(768) %0, ptr noundef nonnull align 8 dereferenceable(27) %1, ptr noundef nonnull %6, i64 noundef %.0, i64 %3, i64 %4)
  call void @llvm.lifetime.end.p0(i64 256, ptr nonnull %6) #36
  ret i64 %23
}